target datalayout = "e-m:e-p270:32:32-p271:32:32-p272:64:64-i64:64-i128:128-f80:128-n8:16:32:64-S128"
target triple = "x86_64-pc-linux-gnu"

%class.anon = type { i8 }
%class.cmTargetPropCommandBase = type { ptr, %"class.std::__cxx11::basic_string", ptr, ptr, ptr }
%"class.std::__cxx11::basic_string" = type { %"struct.std::__cxx11::basic_string<char>::_Alloc_hider", i64, %union.anon }
%"struct.std::__cxx11::basic_string<char>::_Alloc_hider" = type { ptr }
%union.anon = type { i64, [8 x i8] }
%"class.std::basic_string_view" = type { i64, ptr }
%"class.std::initializer_list" = type { ptr, i64 }
%"struct.std::pair" = type { %"class.std::basic_string_view", ptr }
%class.cmAlphaNum = type { ptr, %"class.std::basic_string_view", [32 x i8] }

@.str.1 = private unnamed_addr constant [48 x i8] c"Cannot specify compile definitions for target \22\00", align 1
@.str.2 = private unnamed_addr constant [38 x i8] c"\22 which is not built by this project.\00", align 1
@_ZZ8cmStrCatIRA48_KcRKNSt7__cxx1112basic_stringIcSt11char_traitsIcESaIcEEEJRA38_S0_EES8_OT_OT0_DpOT1_E8makePair = linkonce_odr dso_local constant %class.anon undef, comdat, align 1

; Function Attrs: noreturn nounwind uwtable
define linkonce_odr hidden void @__clang_call_terminate(ptr noundef %0) #8 comdat {
  %2 = call ptr @__cxa_begin_catch(ptr %0) #3
  call void @_ZSt9terminatev() #12
  unreachable
}

; Function Attrs: mustprogress nounwind uwtable
define linkonce_odr dso_local noundef i64 @_ZNSt11char_traitsIcE6lengthEPKc(ptr noundef %0) #5 comdat align 2 {
  %2 = alloca ptr, align 8
  store ptr %0, ptr %2, align 8
  %3 = load ptr, ptr %2, align 8
  %4 = call i64 @strlen(ptr noundef %3) #3
  ret i64 %4
}

; Function Attrs: mustprogress nounwind uwtable
define linkonce_odr dso_local void @_ZNSt4pairISt17basic_string_viewIcSt11char_traitsIcEEPNSt7__cxx1112basic_stringIcS2_SaIcEEEEC2IS3_S8_TnNSt9enable_ifIXaaclsr5_PCCPE22_MoveConstructiblePairIT_T0_EEclsr5_PCCPE30_ImplicitlyMoveConvertiblePairISC_SD_EEEbE4typeELb1EEEOSC_OSD_(ptr noundef nonnull align 8 dereferenceable(24) %0, ptr noundef nonnull align 8 dereferenceable(16) %1, ptr noundef nonnull align 8 dereferenceable(8) %2) unnamed_addr #5 comdat align 2 {
  %4 = alloca ptr, align 8
  %5 = alloca ptr, align 8
  %6 = alloca ptr, align 8
  store ptr %0, ptr %4, align 8
  store ptr %1, ptr %5, align 8
  store ptr %2, ptr %6, align 8
  %7 = load ptr, ptr %4, align 8
  %8 = getelementptr inbounds %"struct.std::pair", ptr %7, i32 0, i32 0
  %9 = load ptr, ptr %5, align 8
  call void @llvm.memcpy.p0.p0.i64(ptr align 8 %8, ptr align 8 %9, i64 16, i1 false)
  %10 = getelementptr inbounds %"struct.std::pair", ptr %7, i32 0, i32 1
  %11 = load ptr, ptr %6, align 8
  %12 = load ptr, ptr %11, align 8
  store ptr %12, ptr %10, align 8
  ret void
}

; Function Attrs: mustprogress nounwind uwtable
define linkonce_odr dso_local noundef ptr @_ZNK10cmAlphaNum12RValueStringB5cxx11Ev(ptr noundef nonnull align 8 dereferenceable(56) %0) #5 comdat align 2 {
  %2 = alloca ptr, align 8
  store ptr %0, ptr %2, align 8
  %3 = load ptr, ptr %2, align 8
  %4 = getelementptr inbounds %class.cmAlphaNum, ptr %3, i32 0, i32 0
  %5 = load ptr, ptr %4, align 8
  ret ptr %5
}

; Function Attrs: mustprogress nounwind uwtable
define linkonce_odr dso_local { i64, ptr } @_ZNK10cmAlphaNum4ViewEv(ptr noundef nonnull align 8 dereferenceable(56) %0) #5 comdat align 2 {
  %2 = alloca %"class.std::basic_string_view", align 8
  %3 = alloca ptr, align 8
  store ptr %0, ptr %3, align 8
  %4 = load ptr, ptr %3, align 8
  %5 = getelementptr inbounds %class.cmAlphaNum, ptr %4, i32 0, i32 0
  %6 = load ptr, ptr %5, align 8
  %7 = icmp ne ptr %6, null
  br i1 %7, label %8, label %16

8:                                                ; preds = %1
  %9 = getelementptr inbounds %class.cmAlphaNum, ptr %4, i32 0, i32 0
  %10 = load ptr, ptr %9, align 8
  %11 = call { i64, ptr } @_ZNKSt7__cxx1112basic_stringIcSt11char_traitsIcESaIcEEcvSt17basic_string_viewIcS2_EEv(ptr noundef nonnull align 8 dereferenceable(32) %10) #3
  %12 = getelementptr inbounds { i64, ptr }, ptr %2, i32 0, i32 0
  %13 = extractvalue { i64, ptr } %11, 0
  store i64 %13, ptr %12, align 8
  %14 = getelementptr inbounds { i64, ptr }, ptr %2, i32 0, i32 1
  %15 = extractvalue { i64, ptr } %11, 1
  store ptr %15, ptr %14, align 8
  br label %18

16:                                               ; preds = %1
  %17 = getelementptr inbounds %class.cmAlphaNum, ptr %4, i32 0, i32 1
  call void @llvm.memcpy.p0.p0.i64(ptr align 8 %2, ptr align 8 %17, i64 16, i1 false)
  br label %18

18:                                               ; preds = %16, %8
  %19 = load { i64, ptr }, ptr %2, align 8
  ret { i64, ptr } %19
}

; Function Attrs: mustprogress nounwind uwtable
define linkonce_odr dso_local void @_ZNSt17basic_string_viewIcSt11char_traitsIcEEC2EPKc(ptr noundef nonnull align 8 dereferenceable(16) %0, ptr noundef nonnull %1) unnamed_addr #5 comdat align 2 personality ptr @__gxx_personality_v0 {
  %3 = alloca ptr, align 8
  %4 = alloca ptr, align 8
  store ptr %0, ptr %3, align 8
  store ptr %1, ptr %4, align 8
  %5 = load ptr, ptr %3, align 8
  %6 = getelementptr inbounds %"class.std::basic_string_view", ptr %5, i32 0, i32 0
  %7 = load ptr, ptr %4, align 8
  %8 = invoke noundef i64 @_ZNSt11char_traitsIcE6lengthEPKc(ptr noundef %7)
          to label %9 unwind label %12

9:                                                ; preds = %2
  store i64 %8, ptr %6, align 8
  %10 = getelementptr inbounds %"class.std::basic_string_view", ptr %5, i32 0, i32 1
  %11 = load ptr, ptr %4, align 8
  store ptr %11, ptr %10, align 8
  ret void

12:                                               ; preds = %2
  %13 = landingpad { ptr, i32 }
          catch ptr null
  %14 = extractvalue { ptr, i32 } %13, 0
  call void @__clang_call_terminate(ptr %14) #12
  unreachable
}

; Function Attrs: mustprogress nounwind uwtable
define linkonce_odr dso_local void @_ZN10cmAlphaNumC2ERKNSt7__cxx1112basic_stringIcSt11char_traitsIcESaIcEEE(ptr noundef nonnull align 8 dereferenceable(56) %0, ptr noundef nonnull align 8 dereferenceable(32) %1) unnamed_addr #5 comdat align 2 {
  %3 = alloca ptr, align 8
  %4 = alloca ptr, align 8
  store ptr %0, ptr %3, align 8
  store ptr %1, ptr %4, align 8
  %5 = load ptr, ptr %3, align 8
  %6 = getelementptr inbounds %class.cmAlphaNum, ptr %5, i32 0, i32 0
  store ptr null, ptr %6, align 8
  %7 = getelementptr inbounds %class.cmAlphaNum, ptr %5, i32 0, i32 1
  %8 = load ptr, ptr %4, align 8
  %9 = call { i64, ptr } @_ZNKSt7__cxx1112basic_stringIcSt11char_traitsIcESaIcEEcvSt17basic_string_viewIcS2_EEv(ptr noundef nonnull align 8 dereferenceable(32) %8) #3
  %10 = getelementptr inbounds { i64, ptr }, ptr %7, i32 0, i32 0
  %11 = extractvalue { i64, ptr } %9, 0
  store i64 %11, ptr %10, align 8
  %12 = getelementptr inbounds { i64, ptr }, ptr %7, i32 0, i32 1
  %13 = extractvalue { i64, ptr } %9, 1
  store ptr %13, ptr %12, align 8
  ret void
}

; Function Attrs: mustprogress uwtable
define linkonce_odr dso_local void @_ZZ8cmStrCatIRA48_KcRKNSt7__cxx1112basic_stringIcSt11char_traitsIcESaIcEEEJRA38_S0_EES8_OT_OT0_DpOT1_ENKUlRK10cmAlphaNumE_clB5cxx11ESM_(ptr dead_on_unwind noalias writable sret(%"struct.std::pair") align 8 %0, ptr noundef nonnull align 1 dereferenceable(1) %1, ptr noundef nonnull align 8 dereferenceable(56) %2) #4 comdat align 2 {
  %4 = alloca ptr, align 8
  %5 = alloca ptr, align 8
  %6 = alloca %"class.std::basic_string_view", align 8
  %7 = alloca ptr, align 8
  store ptr %1, ptr %4, align 8
  store ptr %2, ptr %5, align 8
  %8 = load ptr, ptr %5, align 8
  %9 = call { i64, ptr } @_ZNK10cmAlphaNum4ViewEv(ptr noundef nonnull align 8 dereferenceable(56) %8)
  %10 = getelementptr inbounds { i64, ptr }, ptr %6, i32 0, i32 0
  %11 = extractvalue { i64, ptr } %9, 0
  store i64 %11, ptr %10, align 8
  %12 = getelementptr inbounds { i64, ptr }, ptr %6, i32 0, i32 1
  %13 = extractvalue { i64, ptr } %9, 1
  store ptr %13, ptr %12, align 8
  %14 = load ptr, ptr %5, align 8
  %15 = call noundef ptr @_ZNK10cmAlphaNum12RValueStringB5cxx11Ev(ptr noundef nonnull align 8 dereferenceable(56) %14)
  store ptr %15, ptr %7, align 8
  call void @_ZNSt4pairISt17basic_string_viewIcSt11char_traitsIcEEPNSt7__cxx1112basic_stringIcS2_SaIcEEEEC2IS3_S8_TnNSt9enable_ifIXaaclsr5_PCCPE22_MoveConstructiblePairIT_T0_EEclsr5_PCCPE30_ImplicitlyMoveConvertiblePairISC_SD_EEEbE4typeELb1EEEOSC_OSD_(ptr noundef nonnull align 8 dereferenceable(24) %0, ptr noundef nonnull align 8 dereferenceable(16) %6, ptr noundef nonnull align 8 dereferenceable(8) %7)
  ret void
}

; Function Attrs: mustprogress nounwind uwtable
define linkonce_odr dso_local void @_ZN10cmAlphaNumC2EPKc(ptr noundef nonnull align 8 dereferenceable(56) %0, ptr noundef %1) unnamed_addr #5 comdat align 2 {
  %3 = alloca ptr, align 8
  %4 = alloca ptr, align 8
  store ptr %0, ptr %3, align 8
  store ptr %1, ptr %4, align 8
  %5 = load ptr, ptr %3, align 8
  %6 = getelementptr inbounds %class.cmAlphaNum, ptr %5, i32 0, i32 0
  store ptr null, ptr %6, align 8
  %7 = getelementptr inbounds %class.cmAlphaNum, ptr %5, i32 0, i32 1
  %8 = load ptr, ptr %4, align 8
  call void @_ZNSt17basic_string_viewIcSt11char_traitsIcEEC2EPKc(ptr noundef nonnull align 8 dereferenceable(16) %7, ptr noundef %8) #3
  ret void
}

; Function Attrs: mustprogress uwtable
define linkonce_odr dso_local void @_Z8cmStrCatIRA48_KcRKNSt7__cxx1112basic_stringIcSt11char_traitsIcESaIcEEEJRA38_S0_EES8_OT_OT0_DpOT1_(ptr dead_on_unwind noalias writable sret(%"class.std::__cxx11::basic_string") align 8 %0, ptr noundef nonnull align 1 dereferenceable(48) %1, ptr noundef nonnull align 8 dereferenceable(32) %2, ptr noundef nonnull align 1 dereferenceable(38) %3) #4 comdat {
  %5 = alloca ptr, align 8
  %6 = alloca ptr, align 8
  %7 = alloca ptr, align 8
  %8 = alloca ptr, align 8
  %9 = alloca %"class.std::initializer_list", align 8
  %10 = alloca [3 x %"struct.std::pair"], align 8
  %11 = alloca %class.cmAlphaNum, align 8
  %12 = alloca %class.cmAlphaNum, align 8
  %13 = alloca %class.cmAlphaNum, align 8
  store ptr %0, ptr %5, align 8
  store ptr %1, ptr %6, align 8
  store ptr %2, ptr %7, align 8
  store ptr %3, ptr %8, align 8
  %14 = getelementptr inbounds [3 x %"struct.std::pair"], ptr %10, i64 0, i64 0
  %15 = load ptr, ptr %6, align 8
  %16 = getelementptr inbounds [48 x i8], ptr %15, i64 0, i64 0
  call void @_ZN10cmAlphaNumC2EPKc(ptr noundef nonnull align 8 dereferenceable(56) %11, ptr noundef %16)
  call void @_ZZ8cmStrCatIRA48_KcRKNSt7__cxx1112basic_stringIcSt11char_traitsIcESaIcEEEJRA38_S0_EES8_OT_OT0_DpOT1_ENKUlRK10cmAlphaNumE_clB5cxx11ESM_(ptr dead_on_unwind writable sret(%"struct.std::pair") align 8 %14, ptr noundef nonnull align 1 dereferenceable(1) @_ZZ8cmStrCatIRA48_KcRKNSt7__cxx1112basic_stringIcSt11char_traitsIcESaIcEEEJRA38_S0_EES8_OT_OT0_DpOT1_E8makePair, ptr noundef nonnull align 8 dereferenceable(56) %11)
  %17 = getelementptr inbounds %"struct.std::pair", ptr %14, i64 1
  %18 = load ptr, ptr %7, align 8
  call void @_ZN10cmAlphaNumC2ERKNSt7__cxx1112basic_stringIcSt11char_traitsIcESaIcEEE(ptr noundef nonnull align 8 dereferenceable(56) %12, ptr noundef nonnull align 8 dereferenceable(32) %18)
  call void @_ZZ8cmStrCatIRA48_KcRKNSt7__cxx1112basic_stringIcSt11char_traitsIcESaIcEEEJRA38_S0_EES8_OT_OT0_DpOT1_ENKUlRK10cmAlphaNumE_clB5cxx11ESM_(ptr dead_on_unwind writable sret(%"struct.std::pair") align 8 %17, ptr noundef nonnull align 1 dereferenceable(1) @_ZZ8cmStrCatIRA48_KcRKNSt7__cxx1112basic_stringIcSt11char_traitsIcESaIcEEEJRA38_S0_EES8_OT_OT0_DpOT1_E8makePair, ptr noundef nonnull align 8 dereferenceable(56) %12)
  %19 = getelementptr inbounds %"struct.std::pair", ptr %17, i64 1
  %20 = load ptr, ptr %8, align 8
  %21 = getelementptr inbounds [38 x i8], ptr %20, i64 0, i64 0
  call void @_ZN10cmAlphaNumC2EPKc(ptr noundef nonnull align 8 dereferenceable(56) %13, ptr noundef %21)
  call void @_ZZ8cmStrCatIRA48_KcRKNSt7__cxx1112basic_stringIcSt11char_traitsIcESaIcEEEJRA38_S0_EES8_OT_OT0_DpOT1_ENKUlRK10cmAlphaNumE_clB5cxx11ESM_(ptr dead_on_unwind writable sret(%"struct.std::pair") align 8 %19, ptr noundef nonnull align 1 dereferenceable(1) @_ZZ8cmStrCatIRA48_KcRKNSt7__cxx1112basic_stringIcSt11char_traitsIcESaIcEEEJRA38_S0_EES8_OT_OT0_DpOT1_E8makePair, ptr noundef nonnull align 8 dereferenceable(56) %13)
  %22 = getelementptr inbounds %"class.std::initializer_list", ptr %9, i32 0, i32 0
  %23 = getelementptr inbounds [3 x %"struct.std::pair"], ptr %10, i64 0, i64 0
  store ptr %23, ptr %22, align 8
  %24 = getelementptr inbounds %"class.std::initializer_list", ptr %9, i32 0, i32 1
  store i64 3, ptr %24, align 8
  %25 = getelementptr inbounds { ptr, i64 }, ptr %9, i32 0, i32 0
  %26 = load ptr, ptr %25, align 8
  %27 = getelementptr inbounds { ptr, i64 }, ptr %9, i32 0, i32 1
  %28 = load i64, ptr %27, align 8
  call void @_Z10cmCatViewsSt16initializer_listISt4pairISt17basic_string_viewIcSt11char_traitsIcEEPNSt7__cxx1112basic_stringIcS3_SaIcEEEEE(ptr dead_on_unwind writable sret(%"class.std::__cxx11::basic_string") align 8 %0, ptr %26, i64 %28)
  ret void
}

; Function Attrs: mustprogress uwtable
define internal void @_ZN12_GLOBAL__N_128TargetCompileDefinitionsImpl19HandleMissingTargetERKNSt7__cxx1112basic_stringIcSt11char_traitsIcESaIcEEE(ptr noundef nonnull align 8 dereferenceable(64) %0, ptr noundef nonnull align 8 dereferenceable(32) %1) unnamed_addr #4 align 2 personality ptr @__gxx_personality_v0 {
  %3 = alloca ptr, align 8
  %4 = alloca ptr, align 8
  %5 = alloca %"class.std::__cxx11::basic_string", align 8
  %6 = alloca ptr, align 8
  %7 = alloca i32, align 4
  store ptr %0, ptr %3, align 8
  store ptr %1, ptr %4, align 8
  %8 = load ptr, ptr %3, align 8
  %9 = getelementptr inbounds %class.cmTargetPropCommandBase, ptr %8, i32 0, i32 3
  %10 = load ptr, ptr %9, align 8
  %11 = load ptr, ptr %4, align 8
  call void @_Z8cmStrCatIRA48_KcRKNSt7__cxx1112basic_stringIcSt11char_traitsIcESaIcEEEJRA38_S0_EES8_OT_OT0_DpOT1_(ptr dead_on_unwind writable sret(%"class.std::__cxx11::basic_string") align 8 %5, ptr noundef nonnull align 1 dereferenceable(48) @.str.1, ptr noundef nonnull align 8 dereferenceable(32) %11, ptr noundef nonnull align 1 dereferenceable(38) @.str.2)
  invoke void @_ZNK10cmMakefile12IssueMessageE11MessageTypeRKNSt7__cxx1112basic_stringIcSt11char_traitsIcESaIcEEE(ptr noundef nonnull align 8 dereferenceable(3520) %10, i32 noundef 2, ptr noundef nonnull align 8 dereferenceable(32) %5)
          to label %12 unwind label %13

12:                                               ; preds = %2
  call void @_ZNSt7__cxx1112basic_stringIcSt11char_traitsIcESaIcEED1Ev(ptr noundef nonnull align 8 dereferenceable(32) %5) #3
  ret void

13:                                               ; preds = %2
  %14 = landingpad { ptr, i32 }
          cleanup
  %15 = extractvalue { ptr, i32 } %14, 0
  store ptr %15, ptr %6, align 8
  %16 = extractvalue { ptr, i32 } %14, 1
  store i32 %16, ptr %7, align 4
  call void @_ZNSt7__cxx1112basic_stringIcSt11char_traitsIcESaIcEED1Ev(ptr noundef nonnull align 8 dereferenceable(32) %5) #3
  br label %17

17:                                               ; preds = %13
  %18 = load ptr, ptr %6, align 8
  %19 = load i32, ptr %7, align 4
  %20 = insertvalue { ptr, i32 } poison, ptr %18, 0
  %21 = insertvalue { ptr, i32 } %20, i32 %19, 1
  resume { ptr, i32 } %21
}