; Function Attrs: mustprogress uwtable
define internal void @_ZN12_GLOBAL__N_128TargetCompileDefinitionsImpl19HandleMissingTargetERKNSt7__cxx1112basic_stringIcSt11char_traitsIcESaIcEEE(ptr nocapture noundef nonnull readonly align 8 dereferenceable(64) %0, ptr noundef nonnull align 8 dereferenceable(32) %1) unnamed_addr #3 align 2 personality ptr @__gxx_personality_v0 {
  %3 = alloca [3 x %"struct.std::pair"], align 8
  %4 = alloca %"class.std::__cxx11::basic_string", align 8
  %5 = getelementptr inbounds i8, ptr %0, i64 48
  %6 = load ptr, ptr %5, align 8
  call void @llvm.lifetime.start.p0(i64 72, ptr nonnull %3)
  store i64 47, ptr %3, align 8, !alias.scope !5, !noalias !8
  %.sroa.2.0..sroa_idx.i.i = getelementptr inbounds i8, ptr %3, i64 8
  store ptr @.str.1, ptr %.sroa.2.0..sroa_idx.i.i, align 8, !alias.scope !5, !noalias !8
  %7 = getelementptr inbounds i8, ptr %3, i64 16
  store ptr null, ptr %7, align 8, !alias.scope !5, !noalias !8
  %8 = getelementptr inbounds i8, ptr %3, i64 24
  %9 = tail call { i64, ptr } @_ZNKSt7__cxx1112basic_stringIcSt11char_traitsIcESaIcEEcvSt17basic_string_viewIcS2_EEv(ptr noundef nonnull align 8 dereferenceable(32) %1) #11, !noalias !8
  %10 = extractvalue { i64, ptr } %9, 0
  %11 = extractvalue { i64, ptr } %9, 1
  store i64 %10, ptr %8, align 8, !alias.scope !11, !noalias !8
  %.sroa.2.0..sroa_idx.i7.i = getelementptr inbounds i8, ptr %3, i64 32
  store ptr %11, ptr %.sroa.2.0..sroa_idx.i7.i, align 8, !alias.scope !11, !noalias !8
  %12 = getelementptr inbounds i8, ptr %3, i64 40
  store ptr null, ptr %12, align 8, !alias.scope !11, !noalias !8
  %13 = getelementptr inbounds i8, ptr %3, i64 48
  store i64 37, ptr %13, align 8, !alias.scope !14, !noalias !8
  %.sroa.2.0..sroa_idx.i16.i = getelementptr inbounds i8, ptr %3, i64 56
  store ptr @.str.2, ptr %.sroa.2.0..sroa_idx.i16.i, align 8, !alias.scope !14, !noalias !8
  %14 = getelementptr inbounds i8, ptr %3, i64 64
  store ptr null, ptr %14, align 8, !alias.scope !14, !noalias !8
  call void @_Z10cmCatViewsSt16initializer_listISt4pairISt17basic_string_viewIcSt11char_traitsIcEEPNSt7__cxx1112basic_stringIcS3_SaIcEEEEE(ptr dead_on_unwind nonnull writable sret(%"class.std::__cxx11::basic_string") align 8 %4, ptr nonnull %3, i64 3)
  call void @llvm.lifetime.end.p0(i64 72, ptr nonnull %3)
  invoke void @_ZNK10cmMakefile12IssueMessageE11MessageTypeRKNSt7__cxx1112basic_stringIcSt11char_traitsIcESaIcEEE(ptr noundef nonnull align 8 dereferenceable(3520) %6, i32 noundef 2, ptr noundef nonnull align 8 dereferenceable(32) %4)
          to label %15 unwind label %16

15:                                               ; preds = %2
  call void @_ZNSt7__cxx1112basic_stringIcSt11char_traitsIcESaIcEED1Ev(ptr noundef nonnull align 8 dereferenceable(32) %4) #11
  ret void

16:                                               ; preds = %2
  %17 = landingpad { ptr, i32 }
          cleanup
  call void @_ZNSt7__cxx1112basic_stringIcSt11char_traitsIcESaIcEED1Ev(ptr noundef nonnull align 8 dereferenceable(32) %4) #11
  resume { ptr, i32 } %17
}